; Function Attrs: mustprogress nofree norecurse nosync nounwind willreturn memory(read, argmem: readwrite, inaccessiblemem: none) uwtable
define void @_ZNK3gmx9SelectioncvNS_29AnalysisNeighborhoodPositionsEEv(ptr dead_on_unwind noalias nocapture writable writeonly sret(%"class.gmx::AnalysisNeighborhoodPositions") align 8 %0, ptr nocapture noundef nonnull readonly align 8 dereferenceable(8) %1) local_unnamed_addr #11 align 2 {
  %3 = load ptr, ptr %1, align 8
  %4 = getelementptr inbounds i8, ptr %3, i64 64
  %5 = load ptr, ptr %4, align 8
  %6 = getelementptr inbounds i8, ptr %3, i64 112
  %7 = load i32, ptr %6, align 8
  store i32 %7, ptr %0, align 8
  %8 = getelementptr inbounds i8, ptr %0, i64 4
  store i32 -1, ptr %8, align 4
  %9 = getelementptr inbounds i8, ptr %0, i64 8
  store ptr %5, ptr %9, align 8
  %10 = getelementptr inbounds i8, ptr %0, i64 16
  tail call void @llvm.memset.p0.i64(ptr noundef nonnull align 8 dereferenceable(16) %10, i8 0, i64 16, i1 false)
  %11 = getelementptr inbounds i8, ptr %3, i64 88
  %12 = load i32, ptr %11, align 8
  %13 = icmp eq i32 %12, 1
  br i1 %13, label %14, label %17

14:                                               ; preds = %2
  %15 = getelementptr inbounds i8, ptr %3, i64 136
  %16 = load ptr, ptr %15, align 8
  store ptr %16, ptr %10, align 8
  br label %17

17:                                               ; preds = %14, %2
  ret void
}